target datalayout = "e-m:e-p270:32:32-p271:32:32-p272:64:64-i64:64-i128:128-f80:128-n8:16:32:64-S128"
target triple = "x86_64-pc-linux-gnu"

%struct.rb_data_type_struct = type { ptr, %struct.anon, ptr, ptr, i64 }
%struct.anon = type { ptr, ptr, ptr, ptr, [1 x ptr] }
%struct.RTypedData = type { %struct.RBasic, ptr, i64, ptr }
%struct.RBasic = type { i64, i64 }

@ossl_bn_type = internal constant %struct.rb_data_type_struct { ptr @.str.62, %struct.anon { ptr null, ptr @ossl_bn_free, ptr null, ptr null, [1 x ptr] zeroinitializer }, ptr null, ptr null, i64 289 }, align 8
@eBNError = internal global i64 0, align 8
@rb_eRuntimeError = external global i64, align 8
@.str = private unnamed_addr constant [23 x i8] c"BN wasn't initialized!\00", align 1
@ossl_bn_ctx_key = internal global ptr null, align 8
@.str.2 = private unnamed_addr constant [19 x i8] c"Cannot init BN_CTX\00", align 1

; Function Attrs: nounwind sspstrong uwtable
define ptr @ossl_bn_ctx_get() #0 {
  %1 = alloca ptr, align 8
  call void @llvm.lifetime.start.p0(i64 8, ptr %1) #20
  %2 = load ptr, ptr @ossl_bn_ctx_key, align 8, !tbaa !19
  %3 = call ptr @rb_ractor_local_storage_ptr(ptr noundef %2)
  store ptr %3, ptr %1, align 8, !tbaa !21
  %4 = load ptr, ptr %1, align 8, !tbaa !21
  %5 = icmp ne ptr %4, null
  br i1 %5, label %14, label %6

6:                                                ; preds = %0
  %7 = call ptr @BN_CTX_new()
  store ptr %7, ptr %1, align 8, !tbaa !21
  %8 = icmp ne ptr %7, null
  br i1 %8, label %11, label %9

9:                                                ; preds = %6
  %10 = load i64, ptr @rb_eRuntimeError, align 8, !tbaa !11
  call void (i64, ptr, ...) @ossl_raise(i64 noundef %10, ptr noundef @.str.2) #21
  unreachable

11:                                               ; preds = %6
  %12 = load ptr, ptr @ossl_bn_ctx_key, align 8, !tbaa !19
  %13 = load ptr, ptr %1, align 8, !tbaa !21
  call void @rb_ractor_local_storage_ptr_set(ptr noundef %12, ptr noundef %13)
  br label %14

14:                                               ; preds = %11, %0
  %15 = load ptr, ptr %1, align 8, !tbaa !21
  call void @llvm.lifetime.end.p0(i64 8, ptr %1) #20
  ret ptr %15
}

; Function Attrs: nounwind sspstrong uwtable
define internal i64 @ossl_bn_sqr(i64 noundef %0) #0 {
  %2 = alloca i64, align 8
  %3 = alloca ptr, align 8
  %4 = alloca ptr, align 8
  %5 = alloca i64, align 8
  store i64 %0, ptr %2, align 8, !tbaa !11
  call void @llvm.lifetime.start.p0(i64 8, ptr %3) #20
  call void @llvm.lifetime.start.p0(i64 8, ptr %4) #20
  call void @llvm.lifetime.start.p0(i64 8, ptr %5) #20
  br label %6

6:                                                ; preds = %1
  %7 = load i64, ptr %2, align 8, !tbaa !11
  %8 = call ptr @rb_check_typeddata(i64 noundef %7, ptr noundef @ossl_bn_type)
  store ptr %8, ptr %3, align 8, !tbaa !6
  %9 = load ptr, ptr %3, align 8, !tbaa !6
  %10 = icmp ne ptr %9, null
  br i1 %10, label %13, label %11

11:                                               ; preds = %6
  %12 = load i64, ptr @rb_eRuntimeError, align 8, !tbaa !11
  call void (i64, ptr, ...) @ossl_raise(i64 noundef %12, ptr noundef @.str) #21
  unreachable

13:                                               ; preds = %6
  br label %14

14:                                               ; preds = %13
  br label %15

15:                                               ; preds = %14
  %16 = load i64, ptr %2, align 8, !tbaa !11
  %17 = call i64 @rb_obj_class(i64 noundef %16)
  %18 = call i64 @rb_data_typed_object_wrap(i64 noundef %17, ptr noundef null, ptr noundef @ossl_bn_type)
  store i64 %18, ptr %5, align 8, !tbaa !11
  %19 = call ptr @BN_new()
  store ptr %19, ptr %4, align 8, !tbaa !6
  %20 = icmp ne ptr %19, null
  br i1 %20, label %23, label %21

21:                                               ; preds = %15
  %22 = load i64, ptr @eBNError, align 8, !tbaa !11
  call void (i64, ptr, ...) @ossl_raise(i64 noundef %22, ptr noundef null) #21
  unreachable

23:                                               ; preds = %15
  %24 = load ptr, ptr %4, align 8, !tbaa !6
  %25 = load ptr, ptr %3, align 8, !tbaa !6
  %26 = call ptr @ossl_bn_ctx_get()
  %27 = call i32 @BN_sqr(ptr noundef %24, ptr noundef %25, ptr noundef %26)
  %28 = icmp sle i32 %27, 0
  br i1 %28, label %29, label %32

29:                                               ; preds = %23
  %30 = load ptr, ptr %4, align 8, !tbaa !6
  call void @BN_free(ptr noundef %30)
  %31 = load i64, ptr @eBNError, align 8, !tbaa !11
  call void (i64, ptr, ...) @ossl_raise(i64 noundef %31, ptr noundef null) #21
  unreachable

32:                                               ; preds = %23
  br label %33

33:                                               ; preds = %32
  %34 = load ptr, ptr %4, align 8, !tbaa !6
  %35 = icmp ne ptr %34, null
  br i1 %35, label %38, label %36

36:                                               ; preds = %33
  %37 = load i64, ptr @rb_eRuntimeError, align 8, !tbaa !11
  call void (i64, ptr, ...) @ossl_raise(i64 noundef %37, ptr noundef @.str) #21
  unreachable

38:                                               ; preds = %33
  %39 = load ptr, ptr %4, align 8, !tbaa !6
  %40 = load i64, ptr %5, align 8, !tbaa !11
  %41 = inttoptr i64 %40 to ptr
  %42 = getelementptr inbounds nuw %struct.RTypedData, ptr %41, i32 0, i32 3
  store ptr %39, ptr %42, align 8, !tbaa !13
  br label %43

43:                                               ; preds = %38
  br label %44

44:                                               ; preds = %43
  %45 = load i64, ptr %5, align 8, !tbaa !11
  call void @llvm.lifetime.end.p0(i64 8, ptr %5) #20
  call void @llvm.lifetime.end.p0(i64 8, ptr %4) #20
  call void @llvm.lifetime.end.p0(i64 8, ptr %3) #20
  ret i64 %45
}