; Function Attrs: nounwind sspstrong uwtable
define internal i64 @ossl_bn_sqr(i64 noundef %0) #0 {
  %2 = tail call ptr @rb_check_typeddata(i64 noundef %0, ptr noundef nonnull @ossl_bn_type) #11
  %.not = icmp eq ptr %2, null
  br i1 %.not, label %3, label %5

3:                                                ; preds = %1
  %4 = load i64, ptr @rb_eRuntimeError, align 8, !tbaa !6
  tail call void (i64, ptr, ...) @ossl_raise(i64 noundef %4, ptr noundef nonnull @.str) #12
  unreachable

5:                                                ; preds = %1
  %6 = tail call i64 @rb_obj_class(i64 noundef %0) #11
  %7 = tail call i64 @rb_data_typed_object_wrap(i64 noundef %6, ptr noundef null, ptr noundef nonnull @ossl_bn_type) #11
  %8 = tail call ptr @BN_new() #11
  %.not10 = icmp eq ptr %8, null
  br i1 %.not10, label %9, label %11

9:                                                ; preds = %5
  %10 = load i64, ptr @eBNError, align 8, !tbaa !6
  tail call void (i64, ptr, ...) @ossl_raise(i64 noundef %10, ptr noundef null) #12
  unreachable

11:                                               ; preds = %5
  %12 = load ptr, ptr @ossl_bn_ctx_key, align 8, !tbaa !16
  %13 = tail call ptr @rb_ractor_local_storage_ptr(ptr noundef %12) #11
  %.not.i = icmp eq ptr %13, null
  br i1 %.not.i, label %14, label %ossl_bn_ctx_get.exit

14:                                               ; preds = %11
  %15 = tail call ptr @BN_CTX_new() #11
  %.not5.i = icmp eq ptr %15, null
  br i1 %.not5.i, label %16, label %18

16:                                               ; preds = %14
  %17 = load i64, ptr @rb_eRuntimeError, align 8, !tbaa !6
  tail call void (i64, ptr, ...) @ossl_raise(i64 noundef %17, ptr noundef nonnull @.str.2) #12
  unreachable

18:                                               ; preds = %14
  %19 = load ptr, ptr @ossl_bn_ctx_key, align 8, !tbaa !16
  tail call void @rb_ractor_local_storage_ptr_set(ptr noundef %19, ptr noundef nonnull %15) #11
  br label %ossl_bn_ctx_get.exit

ossl_bn_ctx_get.exit:                             ; preds = %11, %18
  %.0.i = phi ptr [ %13, %11 ], [ %15, %18 ]
  %20 = tail call i32 @BN_sqr(ptr noundef nonnull %8, ptr noundef nonnull %2, ptr noundef nonnull %.0.i) #11
  %21 = icmp slt i32 %20, 1
  br i1 %21, label %22, label %24

22:                                               ; preds = %ossl_bn_ctx_get.exit
  tail call void @BN_free(ptr noundef nonnull %8) #11
  %23 = load i64, ptr @eBNError, align 8, !tbaa !6
  tail call void (i64, ptr, ...) @ossl_raise(i64 noundef %23, ptr noundef null) #12
  unreachable

24:                                               ; preds = %ossl_bn_ctx_get.exit
  %25 = inttoptr i64 %7 to ptr
  %26 = getelementptr inbounds nuw i8, ptr %25, i64 32
  store ptr %8, ptr %26, align 8, !tbaa !10
  ret i64 %7
}